target datalayout = "e-m:e-p270:32:32-p271:32:32-p272:64:64-i64:64-i128:128-f80:128-n8:16:32:64-S128"
target triple = "x86_64-pc-linux-gnu"

%struct.pcre2_memctl = type { ptr, ptr, ptr }
%struct.pcre2_real_code_8 = type { %struct.pcre2_memctl, ptr, ptr, [32 x i8], i64, i64, i32, i32, i32, i32, i32, i32, i32, i32, i32, i32, i16, i16, i16, i16, i16, i16, i16, i16, i32 }

; Function Attrs: nounwind uwtable
define internal i32 @find_text_end(ptr noundef %0, ptr noundef %1, ptr noundef %2, i32 noundef %3) #0 {
  %5 = alloca i32, align 4
  %6 = alloca ptr, align 8
  %7 = alloca ptr, align 8
  %8 = alloca ptr, align 8
  %9 = alloca i32, align 4
  %10 = alloca i32, align 4
  %11 = alloca i32, align 4
  %12 = alloca i32, align 4
  %13 = alloca ptr, align 8
  %14 = alloca i32, align 4
  %15 = alloca i32, align 4
  %16 = alloca i32, align 4
  %17 = alloca i32, align 4
  store ptr %0, ptr %6, align 8, !tbaa !4
  store ptr %1, ptr %7, align 8, !tbaa !55
  store ptr %2, ptr %8, align 8, !tbaa !9
  store i32 %3, ptr %9, align 4, !tbaa !13
  call void @llvm.lifetime.start.p0(i64 4, ptr %10) #5
  store i32 0, ptr %10, align 4, !tbaa !13
  call void @llvm.lifetime.start.p0(i64 4, ptr %11) #5
  store i32 0, ptr %11, align 4, !tbaa !13
  call void @llvm.lifetime.start.p0(i64 4, ptr %12) #5
  store i32 0, ptr %12, align 4, !tbaa !13
  call void @llvm.lifetime.start.p0(i64 8, ptr %13) #5
  %18 = load ptr, ptr %7, align 8, !tbaa !55
  %19 = load ptr, ptr %18, align 8, !tbaa !9
  store ptr %19, ptr %13, align 8, !tbaa !9
  br label %20

20:                                               ; preds = %151, %4
  %21 = load ptr, ptr %13, align 8, !tbaa !9
  %22 = load ptr, ptr %8, align 8, !tbaa !9
  %23 = icmp ult ptr %21, %22
  br i1 %23, label %24, label %154

24:                                               ; preds = %20
  %25 = load i32, ptr %12, align 4, !tbaa !13
  %26 = icmp ne i32 %25, 0
  br i1 %26, label %27, label %48

27:                                               ; preds = %24
  %28 = load ptr, ptr %13, align 8, !tbaa !9
  %29 = getelementptr inbounds i8, ptr %28, i64 0
  %30 = load i8, ptr %29, align 1, !tbaa !43
  %31 = zext i8 %30 to i32
  %32 = icmp eq i32 %31, 92
  br i1 %32, label %33, label %47

33:                                               ; preds = %27
  %34 = load ptr, ptr %13, align 8, !tbaa !9
  %35 = load ptr, ptr %8, align 8, !tbaa !9
  %36 = getelementptr inbounds i8, ptr %35, i64 -1
  %37 = icmp ult ptr %34, %36
  br i1 %37, label %38, label %47

38:                                               ; preds = %33
  %39 = load ptr, ptr %13, align 8, !tbaa !9
  %40 = getelementptr inbounds i8, ptr %39, i64 1
  %41 = load i8, ptr %40, align 1, !tbaa !43
  %42 = zext i8 %41 to i32
  %43 = icmp eq i32 %42, 69
  br i1 %43, label %44, label %47

44:                                               ; preds = %38
  store i32 0, ptr %12, align 4, !tbaa !13
  %45 = load ptr, ptr %13, align 8, !tbaa !9
  %46 = getelementptr inbounds i8, ptr %45, i64 1
  store ptr %46, ptr %13, align 8, !tbaa !9
  br label %47

47:                                               ; preds = %44, %38, %33, %27
  br label %150

48:                                               ; preds = %24
  %49 = load ptr, ptr %13, align 8, !tbaa !9
  %50 = load i8, ptr %49, align 1, !tbaa !43
  %51 = zext i8 %50 to i32
  %52 = icmp eq i32 %51, 125
  br i1 %52, label %53, label %60

53:                                               ; preds = %48
  %54 = load i32, ptr %11, align 4, !tbaa !13
  %55 = icmp eq i32 %54, 0
  br i1 %55, label %56, label %57

56:                                               ; preds = %53
  br label %155

57:                                               ; preds = %53
  %58 = load i32, ptr %11, align 4, !tbaa !13
  %59 = add i32 %58, -1
  store i32 %59, ptr %11, align 4, !tbaa !13
  br label %149

60:                                               ; preds = %48
  %61 = load ptr, ptr %13, align 8, !tbaa !9
  %62 = load i8, ptr %61, align 1, !tbaa !43
  %63 = zext i8 %62 to i32
  %64 = icmp eq i32 %63, 58
  br i1 %64, label %65, label %72

65:                                               ; preds = %60
  %66 = load i32, ptr %9, align 4, !tbaa !13
  %67 = icmp ne i32 %66, 0
  br i1 %67, label %72, label %68

68:                                               ; preds = %65
  %69 = load i32, ptr %11, align 4, !tbaa !13
  %70 = icmp eq i32 %69, 0
  br i1 %70, label %71, label %72

71:                                               ; preds = %68
  br label %155

72:                                               ; preds = %68, %65, %60
  %73 = load ptr, ptr %13, align 8, !tbaa !9
  %74 = load i8, ptr %73, align 1, !tbaa !43
  %75 = zext i8 %74 to i32
  %76 = icmp eq i32 %75, 36
  br i1 %76, label %77, label %94

77:                                               ; preds = %72
  %78 = load ptr, ptr %13, align 8, !tbaa !9
  %79 = load ptr, ptr %8, align 8, !tbaa !9
  %80 = getelementptr inbounds i8, ptr %79, i64 -1
  %81 = icmp ult ptr %78, %80
  br i1 %81, label %82, label %93

82:                                               ; preds = %77
  %83 = load ptr, ptr %13, align 8, !tbaa !9
  %84 = getelementptr inbounds i8, ptr %83, i64 1
  %85 = load i8, ptr %84, align 1, !tbaa !43
  %86 = zext i8 %85 to i32
  %87 = icmp eq i32 %86, 123
  br i1 %87, label %88, label %93

88:                                               ; preds = %82
  %89 = load i32, ptr %11, align 4, !tbaa !13
  %90 = add i32 %89, 1
  store i32 %90, ptr %11, align 4, !tbaa !13
  %91 = load ptr, ptr %13, align 8, !tbaa !9
  %92 = getelementptr inbounds i8, ptr %91, i64 1
  store ptr %92, ptr %13, align 8, !tbaa !9
  br label %93

93:                                               ; preds = %88, %82, %77
  br label %147

94:                                               ; preds = %72
  %95 = load ptr, ptr %13, align 8, !tbaa !9
  %96 = load i8, ptr %95, align 1, !tbaa !43
  %97 = zext i8 %96 to i32
  %98 = icmp eq i32 %97, 92
  br i1 %98, label %99, label %146

99:                                               ; preds = %94
  call void @llvm.lifetime.start.p0(i64 4, ptr %14) #5
  call void @llvm.lifetime.start.p0(i64 4, ptr %15) #5
  call void @llvm.lifetime.start.p0(i64 4, ptr %16) #5
  %100 = load ptr, ptr %13, align 8, !tbaa !9
  %101 = load ptr, ptr %8, align 8, !tbaa !9
  %102 = getelementptr inbounds i8, ptr %101, i64 -1
  %103 = icmp ult ptr %100, %102
  br i1 %103, label %104, label %113

104:                                              ; preds = %99
  %105 = load ptr, ptr %13, align 8, !tbaa !9
  %106 = getelementptr inbounds i8, ptr %105, i64 1
  %107 = load i8, ptr %106, align 1, !tbaa !43
  %108 = zext i8 %107 to i32
  switch i32 %108, label %112 [
    i32 76, label %109
    i32 108, label %109
    i32 85, label %109
    i32 117, label %109
  ]

109:                                              ; preds = %104, %104, %104, %104
  %110 = load ptr, ptr %13, align 8, !tbaa !9
  %111 = getelementptr inbounds i8, ptr %110, i64 1
  store ptr %111, ptr %13, align 8, !tbaa !9
  store i32 4, ptr %17, align 4
  br label %143

112:                                              ; preds = %104
  br label %113

113:                                              ; preds = %112, %99
  %114 = load ptr, ptr %13, align 8, !tbaa !9
  %115 = getelementptr inbounds i8, ptr %114, i64 1
  store ptr %115, ptr %13, align 8, !tbaa !9
  %116 = load ptr, ptr %8, align 8, !tbaa !9
  %117 = load ptr, ptr %6, align 8, !tbaa !4
  %118 = getelementptr inbounds nuw %struct.pcre2_real_code_8, ptr %117, i32 0, i32 8
  %119 = load i32, ptr %118, align 8, !tbaa !21
  %120 = load ptr, ptr %6, align 8, !tbaa !4
  %121 = getelementptr inbounds nuw %struct.pcre2_real_code_8, ptr %120, i32 0, i32 9
  %122 = load i32, ptr %121, align 4, !tbaa !51
  %123 = load ptr, ptr %6, align 8, !tbaa !4
  %124 = getelementptr inbounds nuw %struct.pcre2_real_code_8, ptr %123, i32 0, i32 20
  %125 = load i16, ptr %124, align 8, !tbaa !30
  %126 = zext i16 %125 to i32
  %127 = call i32 @_pcre2_check_escape_8(ptr noundef %13, ptr noundef %116, ptr noundef %16, ptr noundef %15, i32 noundef %119, i32 noundef %122, i32 noundef %126, i32 noundef 0, ptr noundef null)
  store i32 %127, ptr %14, align 4, !tbaa !13
  %128 = load ptr, ptr %13, align 8, !tbaa !9
  %129 = getelementptr inbounds i8, ptr %128, i64 -1
  store ptr %129, ptr %13, align 8, !tbaa !9
  %130 = load i32, ptr %15, align 4, !tbaa !13
  %131 = icmp ne i32 %130, 0
  br i1 %131, label %132, label %133

132:                                              ; preds = %113
  store i32 -57, ptr %10, align 4, !tbaa !13
  store i32 5, ptr %17, align 4
  br label %143

133:                                              ; preds = %113
  %134 = load i32, ptr %14, align 4, !tbaa !13
  switch i32 %134, label %137 [
    i32 0, label %135
    i32 5, label %135
    i32 21, label %135
    i32 25, label %135
    i32 26, label %136
    i32 27, label %142
  ]

135:                                              ; preds = %133, %133, %133, %133
  br label %142

136:                                              ; preds = %133
  store i32 1, ptr %12, align 4, !tbaa !13
  br label %142

137:                                              ; preds = %133
  %138 = load i32, ptr %14, align 4, !tbaa !13
  %139 = icmp slt i32 %138, 0
  br i1 %139, label %140, label %141

140:                                              ; preds = %137
  br label %142

141:                                              ; preds = %137
  store i32 -57, ptr %10, align 4, !tbaa !13
  store i32 5, ptr %17, align 4
  br label %143

142:                                              ; preds = %140, %133, %136, %135
  store i32 0, ptr %17, align 4
  br label %143

143:                                              ; preds = %141, %132, %142, %109
  call void @llvm.lifetime.end.p0(i64 4, ptr %16) #5
  call void @llvm.lifetime.end.p0(i64 4, ptr %15) #5
  call void @llvm.lifetime.end.p0(i64 4, ptr %14) #5
  %144 = load i32, ptr %17, align 4
  switch i32 %144, label %159 [
    i32 0, label %145
    i32 4, label %151
    i32 5, label %155
  ]

145:                                              ; preds = %143
  br label %146

146:                                              ; preds = %145, %94
  br label %147

147:                                              ; preds = %146, %93
  br label %148

148:                                              ; preds = %147
  br label %149

149:                                              ; preds = %148, %57
  br label %150

150:                                              ; preds = %149, %47
  br label %151

151:                                              ; preds = %150, %143
  %152 = load ptr, ptr %13, align 8, !tbaa !9
  %153 = getelementptr inbounds nuw i8, ptr %152, i32 1
  store ptr %153, ptr %13, align 8, !tbaa !9
  br label %20

154:                                              ; preds = %20
  store i32 -58, ptr %10, align 4, !tbaa !13
  br label %155

155:                                              ; preds = %154, %143, %71, %56
  %156 = load ptr, ptr %13, align 8, !tbaa !9
  %157 = load ptr, ptr %7, align 8, !tbaa !55
  store ptr %156, ptr %157, align 8, !tbaa !9
  %158 = load i32, ptr %10, align 4, !tbaa !13
  store i32 %158, ptr %5, align 4
  store i32 1, ptr %17, align 4
  br label %159

159:                                              ; preds = %155, %143
  call void @llvm.lifetime.end.p0(i64 8, ptr %13) #5
  call void @llvm.lifetime.end.p0(i64 4, ptr %12) #5
  call void @llvm.lifetime.end.p0(i64 4, ptr %11) #5
  call void @llvm.lifetime.end.p0(i64 4, ptr %10) #5
  %160 = load i32, ptr %5, align 4
  ret i32 %160
}