; Function Attrs: nounwind uwtable
define internal fastcc range(i32 -58, 1) i32 @find_text_end(ptr noundef readonly captures(none) %0, ptr noundef nonnull captures(none) %1, ptr noundef %2, i32 noundef range(i32 0, 2) %3) unnamed_addr #0 {
  %5 = alloca ptr, align 8
  %6 = alloca i32, align 4
  %7 = alloca i32, align 4
  call void @llvm.lifetime.start.p0(i64 8, ptr nonnull %5) #7
  %8 = load ptr, ptr %1, align 8, !tbaa !34
  store ptr %8, ptr %5, align 8, !tbaa !34
  %9 = icmp ult ptr %8, %2
  br i1 %9, label %.lr.ph, label %.loopexit

.lr.ph:                                           ; preds = %4
  %10 = getelementptr inbounds i8, ptr %2, i64 -1
  %11 = icmp eq i32 %3, 0
  %12 = getelementptr inbounds nuw i8, ptr %0, i64 96
  %13 = getelementptr inbounds nuw i8, ptr %0, i64 100
  %14 = getelementptr inbounds nuw i8, ptr %0, i64 136
  br label %15

15:                                               ; preds = %.lr.ph, %62
  %.02446 = phi i32 [ 0, %.lr.ph ], [ %.3, %62 ]
  %.02545 = phi i32 [ 0, %.lr.ph ], [ %.126, %62 ]
  %storemerge44 = phi ptr [ %8, %.lr.ph ], [ %64, %62 ]
  %.not = icmp eq i32 %.02446, 0
  %16 = load i8, ptr %storemerge44, align 1, !tbaa !31
  br i1 %.not, label %24, label %17

17:                                               ; preds = %15
  %18 = icmp eq i8 %16, 92
  %19 = icmp ult ptr %storemerge44, %10
  %or.cond = select i1 %18, i1 %19, i1 false
  br i1 %or.cond, label %20, label %62

20:                                               ; preds = %17
  %21 = getelementptr inbounds nuw i8, ptr %storemerge44, i64 1
  %22 = load i8, ptr %21, align 1, !tbaa !31
  %23 = icmp ne i8 %22, 69
  %spec.select = select i1 %23, ptr %storemerge44, ptr %21
  %spec.select51 = zext i1 %23 to i32
  br label %62

24:                                               ; preds = %15
  %25 = icmp eq i8 %16, 125
  br i1 %25, label %26, label %30

26:                                               ; preds = %24
  %27 = icmp eq i32 %.02545, 0
  br i1 %27, label %.loopexit, label %28

28:                                               ; preds = %26
  %29 = add i32 %.02545, -1
  br label %62

30:                                               ; preds = %24
  %31 = icmp eq i8 %16, 58
  %or.cond.not37 = and i1 %11, %31
  %32 = icmp eq i32 %.02545, 0
  %or.cond3 = select i1 %or.cond.not37, i1 %32, i1 false
  br i1 %or.cond3, label %.loopexit, label %33

33:                                               ; preds = %30
  switch i8 %16, label %62 [
    i8 36, label %34
    i8 92, label %41
  ]

34:                                               ; preds = %33
  %35 = icmp ult ptr %storemerge44, %10
  br i1 %35, label %36, label %62

36:                                               ; preds = %34
  %37 = getelementptr inbounds nuw i8, ptr %storemerge44, i64 1
  %38 = load i8, ptr %37, align 1, !tbaa !31
  %39 = icmp eq i8 %38, 123
  %spec.select52 = select i1 %39, ptr %37, ptr %storemerge44
  %40 = zext i1 %39 to i32
  %spec.select53 = add i32 %.02545, %40
  br label %62

41:                                               ; preds = %33
  call void @llvm.lifetime.start.p0(i64 4, ptr nonnull %6) #7
  call void @llvm.lifetime.start.p0(i64 4, ptr nonnull %7) #7
  %42 = icmp ult ptr %storemerge44, %10
  br i1 %42, label %43, label %46

43:                                               ; preds = %41
  %44 = getelementptr inbounds nuw i8, ptr %storemerge44, i64 1
  %45 = load i8, ptr %44, align 1, !tbaa !31
  switch i8 %45, label %46 [
    i8 76, label %.thread
    i8 108, label %.thread
    i8 85, label %.thread
    i8 117, label %.thread
  ]

46:                                               ; preds = %43, %41
  %47 = getelementptr inbounds nuw i8, ptr %storemerge44, i64 1
  store ptr %47, ptr %5, align 8, !tbaa !34
  %48 = load i32, ptr %12, align 8, !tbaa !4
  %49 = load i32, ptr %13, align 4, !tbaa !39
  %50 = load i16, ptr %14, align 8, !tbaa !18
  %51 = zext i16 %50 to i32
  %52 = call i32 @_pcre2_check_escape_8(ptr noundef nonnull %5, ptr noundef nonnull %2, ptr noundef nonnull %7, ptr noundef nonnull %6, i32 noundef %48, i32 noundef %49, i32 noundef %51, i32 noundef 0, ptr noundef null) #7
  %53 = load ptr, ptr %5, align 8, !tbaa !34
  %54 = getelementptr inbounds i8, ptr %53, i64 -1
  %55 = load i32, ptr %6, align 4, !tbaa !38
  %.not38 = icmp eq i32 %55, 0
  br i1 %.not38, label %56, label %61

56:                                               ; preds = %46
  switch i32 %52, label %58 [
    i32 0, label %.thread
    i32 5, label %.thread
    i32 21, label %.thread
    i32 25, label %.thread
    i32 26, label %57
    i32 27, label %.thread
  ]

57:                                               ; preds = %56
  br label %.thread

58:                                               ; preds = %56
  %59 = icmp slt i32 %52, 0
  br i1 %59, label %.thread, label %61

.thread:                                          ; preds = %43, %43, %43, %43, %56, %56, %56, %56, %56, %57, %58
  %60 = phi ptr [ %54, %56 ], [ %54, %56 ], [ %54, %56 ], [ %54, %56 ], [ %54, %56 ], [ %54, %57 ], [ %54, %58 ], [ %44, %43 ], [ %44, %43 ], [ %44, %43 ], [ %44, %43 ]
  %.1.ph = phi i32 [ 0, %56 ], [ 0, %56 ], [ 0, %56 ], [ 0, %56 ], [ 0, %56 ], [ 1, %57 ], [ 0, %58 ], [ 0, %43 ], [ 0, %43 ], [ 0, %43 ], [ 0, %43 ]
  call void @llvm.lifetime.end.p0(i64 4, ptr nonnull %7) #7
  call void @llvm.lifetime.end.p0(i64 4, ptr nonnull %6) #7
  br label %62

61:                                               ; preds = %58, %46
  call void @llvm.lifetime.end.p0(i64 4, ptr nonnull %7) #7
  call void @llvm.lifetime.end.p0(i64 4, ptr nonnull %6) #7
  br label %.loopexit

62:                                               ; preds = %36, %20, %.thread, %33, %17, %34, %28
  %63 = phi ptr [ %storemerge44, %17 ], [ %storemerge44, %28 ], [ %storemerge44, %34 ], [ %storemerge44, %33 ], [ %60, %.thread ], [ %spec.select, %20 ], [ %spec.select52, %36 ]
  %.126 = phi i32 [ %.02545, %17 ], [ %29, %28 ], [ %.02545, %34 ], [ %.02545, %33 ], [ %.02545, %.thread ], [ %.02545, %20 ], [ %spec.select53, %36 ]
  %.3 = phi i32 [ 1, %17 ], [ 0, %28 ], [ 0, %34 ], [ 0, %33 ], [ %.1.ph, %.thread ], [ %spec.select51, %20 ], [ 0, %36 ]
  %64 = getelementptr inbounds nuw i8, ptr %63, i64 1
  store ptr %64, ptr %5, align 8, !tbaa !34
  %65 = icmp ult ptr %64, %2
  br i1 %65, label %15, label %.loopexit

.loopexit:                                        ; preds = %62, %30, %26, %4, %61
  %66 = phi ptr [ %54, %61 ], [ %8, %4 ], [ %64, %62 ], [ %storemerge44, %30 ], [ %storemerge44, %26 ]
  %.128 = phi i32 [ -57, %61 ], [ -58, %4 ], [ -58, %62 ], [ 0, %30 ], [ 0, %26 ]
  store ptr %66, ptr %1, align 8, !tbaa !34
  call void @llvm.lifetime.end.p0(i64 8, ptr nonnull %5) #7
  ret i32 %.128
}